; Function Attrs: mustprogress uwtable
define dso_local void @_ZN7V3Graph17stronglyConnectedEPFbPK11V3GraphEdgeE(ptr noundef nonnull align 8 dereferenceable(24) %0, ptr noundef %1) #3 align 2 personality ptr @__gxx_personality_v0 {
  %3 = alloca %class.GraphAlgStrongly, align 8
  store ptr %0, ptr %3, align 8
  %4 = getelementptr inbounds i8, ptr %3, i64 8
  store ptr %1, ptr %4, align 8
  %5 = getelementptr inbounds i8, ptr %3, i64 16
  store i32 0, ptr %5, align 8
  %6 = getelementptr inbounds i8, ptr %3, i64 24
  call void @llvm.memset.p0.i64(ptr noundef nonnull align 8 dereferenceable(24) %6, i8 0, i64 24, i1 false)
  invoke void @_ZN16GraphAlgStrongly4mainEv(ptr noundef nonnull align 8 dereferenceable(48) %3)
          to label %_ZN16GraphAlgStronglyC2EP7V3GraphPFbPK11V3GraphEdgeE.exit unwind label %7

7:                                                ; preds = %2
  %8 = landingpad { ptr, i32 }
          cleanup
  %9 = load ptr, ptr %6, align 8
  %.not.i.i.i.i = icmp eq ptr %9, null
  br i1 %.not.i.i.i.i, label %_ZNSt6vectorIP13V3GraphVertexSaIS1_EED2Ev.exit.i, label %10

10:                                               ; preds = %7
  call void @_ZdlPv(ptr noundef nonnull %9) #18
  br label %_ZNSt6vectorIP13V3GraphVertexSaIS1_EED2Ev.exit.i

_ZNSt6vectorIP13V3GraphVertexSaIS1_EED2Ev.exit.i: ; preds = %10, %7
  resume { ptr, i32 } %8

_ZN16GraphAlgStronglyC2EP7V3GraphPFbPK11V3GraphEdgeE.exit: ; preds = %2
  %11 = load ptr, ptr %6, align 8
  %.not.i.i.i.i2 = icmp eq ptr %11, null
  br i1 %.not.i.i.i.i2, label %_ZN16GraphAlgStronglyD2Ev.exit, label %12

12:                                               ; preds = %_ZN16GraphAlgStronglyC2EP7V3GraphPFbPK11V3GraphEdgeE.exit
  call void @_ZdlPv(ptr noundef nonnull %11) #18
  br label %_ZN16GraphAlgStronglyD2Ev.exit

_ZN16GraphAlgStronglyD2Ev.exit:                   ; preds = %_ZN16GraphAlgStronglyC2EP7V3GraphPFbPK11V3GraphEdgeE.exit, %12
  ret void
}